; Function Attrs: mustprogress uwtable
define noundef nonnull align 8 dereferenceable(24) ptr @_ZNK6json119JsonValue11array_itemsEv(ptr nocapture nonnull readnone align 8 %0) unnamed_addr #0 align 2 personality ptr @__gxx_personality_v0 {
  %2 = load atomic i8, ptr @_ZGVZN6json11L7staticsEvE1s acquire, align 8
  %3 = icmp eq i8 %2, 0
  br i1 %3, label %4, label %_ZN6json11L7staticsEv.exit, !prof !6

4:                                                ; preds = %1
  %5 = tail call i32 @__cxa_guard_acquire(ptr nonnull @_ZGVZN6json11L7staticsEvE1s) #20
  %.not.i = icmp eq i32 %5, 0
  br i1 %.not.i, label %_ZN6json11L7staticsEv.exit, label %6

6:                                                ; preds = %4
  invoke void @_ZN6json117StaticsC2Ev(ptr noundef nonnull align 8 dereferenceable(152) @_ZZN6json11L7staticsEvE1s)
          to label %7 unwind label %9

7:                                                ; preds = %6
  %8 = tail call i32 @__cxa_atexit(ptr nonnull @_ZN6json117StaticsD2Ev, ptr nonnull @_ZZN6json11L7staticsEvE1s, ptr nonnull @__dso_handle) #20
  tail call void @__cxa_guard_release(ptr nonnull @_ZGVZN6json11L7staticsEvE1s) #20
  br label %_ZN6json11L7staticsEv.exit

9:                                                ; preds = %6
  %10 = landingpad { ptr, i32 }
          cleanup
  tail call void @__cxa_guard_abort(ptr nonnull @_ZGVZN6json11L7staticsEvE1s) #20
  resume { ptr, i32 } %10

_ZN6json11L7staticsEv.exit:                       ; preds = %1, %4, %7
  ret ptr getelementptr inbounds (%"struct.json11::Statics", ptr @_ZZN6json11L7staticsEvE1s, i64 0, i32 4)
}